; ModuleID = 'source-C-CXX/7/878.cpp'
source_filename = "source-C-CXX/7/878.cpp"
target datalayout = "e-m:e-p270:32:32-p271:32:32-p272:64:64-i64:64-f80:128-n8:16:32:64-S128"
target triple = "x86_64-pc-linux-gnu"

%"class.std::ios_base::Init" = type { i8 }
%"class.std::basic_ostream" = type { i32 (...)**, %"class.std::basic_ios" }
%"class.std::basic_ios" = type { %"class.std::ios_base", %"class.std::basic_ostream"*, i8, i8, %"class.std::basic_streambuf"*, %"class.std::ctype"*, %"class.std::num_put"*, %"class.std::num_get"* }
%"class.std::ios_base" = type { i32 (...)**, i64, i64, i32, i32, i32, %"struct.std::ios_base::_Callback_list"*, %"struct.std::ios_base::_Words", [8 x %"struct.std::ios_base::_Words"], i32, %"struct.std::ios_base::_Words"*, %"class.std::locale" }
%"struct.std::ios_base::_Callback_list" = type { %"struct.std::ios_base::_Callback_list"*, void (i32, %"class.std::ios_base"*, i32)*, i32, i32 }
%"struct.std::ios_base::_Words" = type { i8*, i64 }
%"class.std::locale" = type { %"class.std::locale::_Impl"* }
%"class.std::locale::_Impl" = type { i32, %"class.std::locale::facet"**, i64, %"class.std::locale::facet"**, i8** }
%"class.std::locale::facet" = type <{ i32 (...)**, i32, [4 x i8] }>
%"class.std::basic_streambuf" = type { i32 (...)**, i8*, i8*, i8*, i8*, i8*, i8*, %"class.std::locale" }
%"class.std::ctype" = type <{ %"class.std::locale::facet.base", [4 x i8], %struct.__locale_struct*, i8, [7 x i8], i32*, i32*, i16*, i8, [256 x i8], [256 x i8], i8, [6 x i8] }>
%"class.std::locale::facet.base" = type <{ i32 (...)**, i32 }>
%struct.__locale_struct = type { [13 x %struct.__locale_data*], i16*, i32*, i32*, [13 x i8*] }
%struct.__locale_data = type opaque
%"class.std::num_put" = type { %"class.std::locale::facet.base", [4 x i8] }
%"class.std::num_get" = type { %"class.std::locale::facet.base", [4 x i8] }
%"class.std::basic_istream" = type { i32 (...)**, i64, %"class.std::basic_ios" }

@_ZStL8__ioinit = internal global %"class.std::ios_base::Init" zeroinitializer, align 1
@__dso_handle = external hidden global i8
@x = dso_local global i32 0, align 4
@y = dso_local global i32 0, align 4
@_ZSt4cout = external global %"class.std::basic_ostream", align 8
@.str = private unnamed_addr constant [2 x i8] c" \00", align 1
@_ZSt3cin = external global %"class.std::basic_istream", align 8
@llvm.global_ctors = appending global [1 x { i32, void ()*, i8* }] [{ i32, void ()*, i8* } { i32 65535, void ()* @_GLOBAL__sub_I_878.cpp, i8* null }]

declare void @_ZNSt8ios_base4InitC1Ev(%"class.std::ios_base::Init"* nonnull align 1 dereferenceable(1)) unnamed_addr #0

; Function Attrs: nounwind
declare void @_ZNSt8ios_base4InitD1Ev(%"class.std::ios_base::Init"* nonnull align 1 dereferenceable(1)) unnamed_addr #1

; Function Attrs: nofree nounwind
declare i32 @__cxa_atexit(void (i8*)*, i8*, i8*) local_unnamed_addr #2

; Function Attrs: mustprogress sspstrong uwtable
define dso_local i32 @_Z5printv() local_unnamed_addr #3 {
  %1 = tail call nonnull align 8 dereferenceable(8) %"class.std::basic_ostream"* @_ZSt16__ostream_insertIcSt11char_traitsIcEERSt13basic_ostreamIT_T0_ES6_PKS3_l(%"class.std::basic_ostream"* nonnull align 8 dereferenceable(8) @_ZSt4cout, i8* nonnull getelementptr inbounds ([2 x i8], [2 x i8]* @.str, i64 0, i64 0), i64 1)
  ret i32 0
}

; Function Attrs: mustprogress sspstrong uwtable
define dso_local void @_Z5orderi(i32 %0) local_unnamed_addr #3 {
  %2 = alloca [10 x i32], align 16
  %3 = bitcast [10 x i32]* %2 to i8*
  call void @llvm.lifetime.start.p0i8(i64 40, i8* nonnull %3) #7
  %4 = icmp sgt i32 %0, 0
  br i1 %4, label %7, label %5

5:                                                ; preds = %1
  %6 = add i32 %0, -1
  br label %72

7:                                                ; preds = %1
  %8 = zext i32 %0 to i64
  br label %14

9:                                                ; preds = %14
  %10 = add i32 %0, -1
  %11 = icmp sgt i32 %0, 1
  br i1 %11, label %12, label %72

12:                                               ; preds = %9
  %13 = getelementptr inbounds [10 x i32], [10 x i32]* %2, i64 0, i64 0
  br label %20

14:                                               ; preds = %7, %14
  %15 = phi i64 [ 0, %7 ], [ %18, %14 ]
  %16 = getelementptr inbounds [10 x i32], [10 x i32]* %2, i64 0, i64 %15
  %17 = call nonnull align 8 dereferenceable(16) %"class.std::basic_istream"* @_ZNSirsERi(%"class.std::basic_istream"* nonnull align 8 dereferenceable(16) @_ZSt3cin, i32* nonnull align 4 dereferenceable(4) %16)
  %18 = add nuw nsw i64 %15, 1
  %19 = icmp eq i64 %18, %8
  br i1 %19, label %9, label %14, !llvm.loop !5

20:                                               ; preds = %12, %61
  %21 = phi i32 [ 0, %12 ], [ %62, %61 ]
  %22 = sub i32 %10, %21
  %23 = zext i32 %22 to i64
  %24 = icmp sgt i32 %10, %21
  br i1 %24, label %25, label %61

25:                                               ; preds = %20
  %26 = load i32, i32* %13, align 16, !tbaa !7
  %27 = and i64 %23, 1
  %28 = icmp eq i32 %22, 1
  br i1 %28, label %50, label %29

29:                                               ; preds = %25
  %30 = and i64 %23, 4294967294
  br label %34

31:                                               ; preds = %61
  br i1 %11, label %32, label %72

32:                                               ; preds = %31
  %33 = zext i32 %10 to i64
  br label %64

34:                                               ; preds = %80, %29
  %35 = phi i32 [ %26, %29 ], [ %81, %80 ]
  %36 = phi i64 [ 0, %29 ], [ %46, %80 ]
  %37 = phi i64 [ %30, %29 ], [ %82, %80 ]
  %38 = or i64 %36, 1
  %39 = getelementptr inbounds [10 x i32], [10 x i32]* %2, i64 0, i64 %38
  %40 = load i32, i32* %39, align 4, !tbaa !7
  %41 = icmp slt i32 %40, %35
  br i1 %41, label %42, label %44

42:                                               ; preds = %34
  %43 = getelementptr inbounds [10 x i32], [10 x i32]* %2, i64 0, i64 %36
  store i32 %40, i32* %43, align 8, !tbaa !7
  store i32 %35, i32* %39, align 4, !tbaa !7
  br label %44

44:                                               ; preds = %34, %42
  %45 = phi i32 [ %40, %34 ], [ %35, %42 ]
  %46 = add nuw nsw i64 %36, 2
  %47 = getelementptr inbounds [10 x i32], [10 x i32]* %2, i64 0, i64 %46
  %48 = load i32, i32* %47, align 8, !tbaa !7
  %49 = icmp slt i32 %48, %45
  br i1 %49, label %78, label %80

50:                                               ; preds = %80, %25
  %51 = phi i32 [ %26, %25 ], [ %81, %80 ]
  %52 = phi i64 [ 0, %25 ], [ %46, %80 ]
  %53 = icmp eq i64 %27, 0
  br i1 %53, label %61, label %54

54:                                               ; preds = %50
  %55 = add nuw nsw i64 %52, 1
  %56 = getelementptr inbounds [10 x i32], [10 x i32]* %2, i64 0, i64 %55
  %57 = load i32, i32* %56, align 4, !tbaa !7
  %58 = icmp slt i32 %57, %51
  br i1 %58, label %59, label %61

59:                                               ; preds = %54
  %60 = getelementptr inbounds [10 x i32], [10 x i32]* %2, i64 0, i64 %52
  store i32 %57, i32* %60, align 4, !tbaa !7
  store i32 %51, i32* %56, align 4, !tbaa !7
  br label %61

61:                                               ; preds = %50, %54, %59, %20
  %62 = add nuw nsw i32 %21, 1
  %63 = icmp eq i32 %62, %10
  br i1 %63, label %31, label %20, !llvm.loop !11

64:                                               ; preds = %32, %64
  %65 = phi i64 [ 0, %32 ], [ %70, %64 ]
  %66 = getelementptr inbounds [10 x i32], [10 x i32]* %2, i64 0, i64 %65
  %67 = load i32, i32* %66, align 4, !tbaa !7
  %68 = call nonnull align 8 dereferenceable(8) %"class.std::basic_ostream"* @_ZNSolsEi(%"class.std::basic_ostream"* nonnull align 8 dereferenceable(8) @_ZSt4cout, i32 %67)
  %69 = call nonnull align 8 dereferenceable(8) %"class.std::basic_ostream"* @_ZSt16__ostream_insertIcSt11char_traitsIcEERSt13basic_ostreamIT_T0_ES6_PKS3_l(%"class.std::basic_ostream"* nonnull align 8 dereferenceable(8) %68, i8* nonnull getelementptr inbounds ([2 x i8], [2 x i8]* @.str, i64 0, i64 0), i64 1)
  %70 = add nuw nsw i64 %65, 1
  %71 = icmp eq i64 %70, %33
  br i1 %71, label %72, label %64, !llvm.loop !12

72:                                               ; preds = %64, %9, %5, %31
  %73 = phi i32 [ %10, %31 ], [ %6, %5 ], [ %10, %9 ], [ %10, %64 ]
  %74 = sext i32 %73 to i64
  %75 = getelementptr inbounds [10 x i32], [10 x i32]* %2, i64 0, i64 %74
  %76 = load i32, i32* %75, align 4, !tbaa !7
  %77 = call nonnull align 8 dereferenceable(8) %"class.std::basic_ostream"* @_ZNSolsEi(%"class.std::basic_ostream"* nonnull align 8 dereferenceable(8) @_ZSt4cout, i32 %76)
  call void @llvm.lifetime.end.p0i8(i64 40, i8* nonnull %3) #7
  ret void

78:                                               ; preds = %44
  %79 = getelementptr inbounds [10 x i32], [10 x i32]* %2, i64 0, i64 %38
  store i32 %48, i32* %79, align 4, !tbaa !7
  store i32 %45, i32* %47, align 8, !tbaa !7
  br label %80

80:                                               ; preds = %78, %44
  %81 = phi i32 [ %48, %44 ], [ %45, %78 ]
  %82 = add i64 %37, -2
  %83 = icmp eq i64 %82, 0
  br i1 %83, label %50, label %34, !llvm.loop !13
}

; Function Attrs: argmemonly mustprogress nofree nosync nounwind willreturn
declare void @llvm.lifetime.start.p0i8(i64 immarg, i8* nocapture) #4

declare nonnull align 8 dereferenceable(16) %"class.std::basic_istream"* @_ZNSirsERi(%"class.std::basic_istream"* nonnull align 8 dereferenceable(16), i32* nonnull align 4 dereferenceable(4)) local_unnamed_addr #0

declare nonnull align 8 dereferenceable(8) %"class.std::basic_ostream"* @_ZNSolsEi(%"class.std::basic_ostream"* nonnull align 8 dereferenceable(8), i32) local_unnamed_addr #0

; Function Attrs: argmemonly mustprogress nofree nosync nounwind willreturn
declare void @llvm.lifetime.end.p0i8(i64 immarg, i8* nocapture) #4

; Function Attrs: mustprogress norecurse sspstrong uwtable
define dso_local i32 @main() local_unnamed_addr #5 {
  %1 = tail call nonnull align 8 dereferenceable(16) %"class.std::basic_istream"* @_ZNSirsERi(%"class.std::basic_istream"* nonnull align 8 dereferenceable(16) @_ZSt3cin, i32* nonnull align 4 dereferenceable(4) @x)
  %2 = tail call nonnull align 8 dereferenceable(16) %"class.std::basic_istream"* @_ZNSirsERi(%"class.std::basic_istream"* nonnull align 8 dereferenceable(16) %1, i32* nonnull align 4 dereferenceable(4) @y)
  %3 = load i32, i32* @x, align 4, !tbaa !7
  tail call void @_Z5orderi(i32 %3)
  %4 = tail call nonnull align 8 dereferenceable(8) %"class.std::basic_ostream"* @_ZSt16__ostream_insertIcSt11char_traitsIcEERSt13basic_ostreamIT_T0_ES6_PKS3_l(%"class.std::basic_ostream"* nonnull align 8 dereferenceable(8) @_ZSt4cout, i8* nonnull getelementptr inbounds ([2 x i8], [2 x i8]* @.str, i64 0, i64 0), i64 1)
  %5 = load i32, i32* @y, align 4, !tbaa !7
  tail call void @_Z5orderi(i32 %5)
  ret i32 0
}

declare nonnull align 8 dereferenceable(8) %"class.std::basic_ostream"* @_ZSt16__ostream_insertIcSt11char_traitsIcEERSt13basic_ostreamIT_T0_ES6_PKS3_l(%"class.std::basic_ostream"* nonnull align 8 dereferenceable(8), i8*, i64) local_unnamed_addr #0

; Function Attrs: sspstrong uwtable
define internal void @_GLOBAL__sub_I_878.cpp() #6 section ".text.startup" {
  tail call void @_ZNSt8ios_base4InitC1Ev(%"class.std::ios_base::Init"* nonnull align 1 dereferenceable(1) @_ZStL8__ioinit)
  %1 = tail call i32 @__cxa_atexit(void (i8*)* bitcast (void (%"class.std::ios_base::Init"*)* @_ZNSt8ios_base4InitD1Ev to void (i8*)*), i8* getelementptr inbounds (%"class.std::ios_base::Init", %"class.std::ios_base::Init"* @_ZStL8__ioinit, i64 0, i32 0), i8* nonnull @__dso_handle) #7
  ret void
}


!llvm.module.flags = !{!0, !1, !2, !3}
!llvm.ident = !{!4}

!0 = !{i32 1, !"wchar_size", i32 4}
!1 = !{i32 7, !"PIC Level", i32 2}
!2 = !{i32 7, !"PIE Level", i32 2}
!3 = !{i32 7, !"uwtable", i32 1}
!4 = !{!"clang version 13.0.0"}
!5 = distinct !{!5, !6}
!6 = !{!"llvm.loop.mustprogress"}
!7 = !{!8, !8, i64 0}
!8 = !{!"int", !9, i64 0}
!9 = !{!"omnipotent char", !10, i64 0}
!10 = !{!"Simple C++ TBAA"}
!11 = distinct !{!11, !6}
!12 = distinct !{!12, !6}
!13 = distinct !{!13, !6}
